	.file	"code.c"
	.text
	.globl	func0
	.type	func0, @function
func0:
.LFB0:
	.cfi_startproc
	endbr64
	pushq	%rbp
	.cfi_def_cfa_offset 16
	.cfi_offset 6, -16
	movq	%rsp, %rbp
	.cfi_def_cfa_register 6
	pushq	%rbx
	subq	$40, %rsp
	.cfi_offset 3, -24
	movq	%rdi, -40(%rbp)
	movl	%esi, -44(%rbp)
	movl	$0, -24(%rbp)
	movl	$0, -20(%rbp)
	jmp	.L2
.L3:
	movl	-20(%rbp), %eax
	cltq
	leaq	0(,%rax,4), %rdx
	movq	-40(%rbp), %rax
	addq	%rdx, %rax
	movss	(%rax), %xmm0
	pxor	%xmm1, %xmm1
	cvtss2sd	%xmm0, %xmm1
	movq	%xmm1, %rax
	movq	%rax, %xmm0
	call	ceil@PLT
	cvttsd2sil	%xmm0, %ebx
	movl	-20(%rbp), %eax
	cltq
	leaq	0(,%rax,4), %rdx
	movq	-40(%rbp), %rax
	addq	%rdx, %rax
	movss	(%rax), %xmm0
	pxor	%xmm2, %xmm2
	cvtss2sd	%xmm0, %xmm2
	movq	%xmm2, %rax
	movq	%rax, %xmm0
	call	ceil@PLT
	cvttsd2sil	%xmm0, %eax
	imull	%ebx, %eax
	addl	%eax, -24(%rbp)
	addl	$1, -20(%rbp)
.L2:
	movl	-20(%rbp), %eax
	cmpl	-44(%rbp), %eax
	jl	.L3
	movl	-24(%rbp), %eax
	movq	-8(%rbp), %rbx
	leave
	.cfi_def_cfa 7, 8
	ret
	.cfi_endproc
.LFE0:
	.size	func0, .-func0
	.ident	"GCC: (Ubuntu 13.3.0-6ubuntu2~24.04) 13.3.0"
	.section	.note.GNU-stack,"",@progbits
	.section	.note.gnu.property,"a"
	.align 8
	.long	1f - 0f
	.long	4f - 1f
	.long	5
0:
	.string	"GNU"
1:
	.align 8
	.long	0xc0000002
	.long	3f - 2f
2:
	.long	0x3
3:
	.align 8
4:
