	.file	"problem140.c"
	.text
	.globl	func0
	.type	func0, @function
func0:
.LFB0:
	.cfi_startproc
	endbr64
	pushq	%rbp
	.cfi_def_cfa_offset 16
	.cfi_offset 6, -16
	movq	%rsp, %rbp
	.cfi_def_cfa_register 6
	movl	%edi, -36(%rbp)
	movq	$1, -16(%rbp)
	movq	$1, -8(%rbp)
	movl	$1, -20(%rbp)
	jmp	.L2
.L3:
	movl	-20(%rbp), %eax
	cltq
	movq	-16(%rbp), %rdx
	imulq	%rdx, %rax
	movq	%rax, -16(%rbp)
	movq	-8(%rbp), %rax
	imulq	-16(%rbp), %rax
	movq	%rax, -8(%rbp)
	addl	$1, -20(%rbp)
.L2:
	movl	-20(%rbp), %eax
	cmpl	-36(%rbp), %eax
	jle	.L3
	movq	-8(%rbp), %rax
	popq	%rbp
	.cfi_def_cfa 7, 8
	ret
	.cfi_endproc
.LFE0:
	.size	func0, .-func0
	.section	.rodata
.LC0:
	.string	"problem140.c"
.LC1:
	.string	"func0(4) == 288"
.LC2:
	.string	"func0(5) == 34560"
.LC3:
	.string	"func0(7) == 125411328000"
.LC4:
	.string	"func0(1) == 1"
	.text
	.globl	main
	.type	main, @function
main:
.LFB1:
	.cfi_startproc
	endbr64
	pushq	%rbp
	.cfi_def_cfa_offset 16
	.cfi_offset 6, -16
	movq	%rsp, %rbp
	.cfi_def_cfa_register 6
	movl	$4, %edi
	call	func0
	cmpq	$288, %rax
	je	.L6
	leaq	__PRETTY_FUNCTION__.0(%rip), %rax
	movq	%rax, %rcx
	movl	$17, %edx
	leaq	.LC0(%rip), %rax
	movq	%rax, %rsi
	leaq	.LC1(%rip), %rax
	movq	%rax, %rdi
	call	__assert_fail@PLT
.L6:
	movl	$5, %edi
	call	func0
	cmpq	$34560, %rax
	je	.L7
	leaq	__PRETTY_FUNCTION__.0(%rip), %rax
	movq	%rax, %rcx
	movl	$18, %edx
	leaq	.LC0(%rip), %rax
	movq	%rax, %rsi
	leaq	.LC2(%rip), %rax
	movq	%rax, %rdi
	call	__assert_fail@PLT
.L7:
	movl	$7, %edi
	call	func0
	movabsq	$125411328000, %rdx
	cmpq	%rdx, %rax
	je	.L8
	leaq	__PRETTY_FUNCTION__.0(%rip), %rax
	movq	%rax, %rcx
	movl	$19, %edx
	leaq	.LC0(%rip), %rax
	movq	%rax, %rsi
	leaq	.LC3(%rip), %rax
	movq	%rax, %rdi
	call	__assert_fail@PLT
.L8:
	movl	$1, %edi
	call	func0
	cmpq	$1, %rax
	je	.L9
	leaq	__PRETTY_FUNCTION__.0(%rip), %rax
	movq	%rax, %rcx
	movl	$20, %edx
	leaq	.LC0(%rip), %rax
	movq	%rax, %rsi
	leaq	.LC4(%rip), %rax
	movq	%rax, %rdi
	call	__assert_fail@PLT
.L9:
	movl	$0, %eax
	popq	%rbp
	.cfi_def_cfa 7, 8
	ret
	.cfi_endproc
.LFE1:
	.size	main, .-main
	.section	.rodata
	.type	__PRETTY_FUNCTION__.0, @object
	.size	__PRETTY_FUNCTION__.0, 5
__PRETTY_FUNCTION__.0:
	.string	"main"
	.ident	"GCC: (Ubuntu 13.3.0-6ubuntu2~24.04) 13.3.0"
	.section	.note.GNU-stack,"",@progbits
	.section	.note.gnu.property,"a"
	.align 8
	.long	1f - 0f
	.long	4f - 1f
	.long	5
0:
	.string	"GNU"
1:
	.align 8
	.long	0xc0000002
	.long	3f - 2f
2:
	.long	0x3
3:
	.align 8
4:
