	.arch armv8-a
	.file	"code.c"
	.text
	.align	2
	.global	func0
	.type	func0, %function
func0:
.LFB6:
	.cfi_startproc
	stp	x29, x30, [sp, -80]!
	.cfi_def_cfa_offset 80
	.cfi_offset 29, -80
	.cfi_offset 30, -72
	mov	x29, sp
	str	x0, [sp, 40]
	str	w1, [sp, 36]
	str	x2, [sp, 24]
	ldr	w0, [sp, 36]
	mov	w1, 21846
	movk	w1, 0x5555, lsl 16
	smull	x1, w0, w1
	lsr	x1, x1, 32
	asr	w0, w0, 31
	sub	w0, w1, w0
	add	w0, w0, 1
	sxtw	x0, w0
	lsl	x0, x0, 2
	bl	malloc
	str	x0, [sp, 72]
	str	wzr, [sp, 56]
	str	wzr, [sp, 60]
	str	wzr, [sp, 52]
	b	.L2
.L3:
	ldr	w1, [sp, 52]
	mov	w0, w1
	lsl	w0, w0, 1
	add	w0, w0, w1
	sxtw	x0, w0
	lsl	x0, x0, 2
	ldr	x1, [sp, 40]
	add	x1, x1, x0
	ldrsw	x0, [sp, 52]
	lsl	x0, x0, 2
	ldr	x2, [sp, 72]
	add	x0, x2, x0
	ldr	w1, [x1]
	str	w1, [x0]
	ldr	w0, [sp, 60]
	add	w0, w0, 1
	str	w0, [sp, 60]
	ldr	w0, [sp, 52]
	add	w0, w0, 1
	str	w0, [sp, 52]
.L2:
	ldr	w1, [sp, 52]
	mov	w0, w1
	lsl	w0, w0, 1
	add	w0, w0, w1
	ldr	w1, [sp, 36]
	cmp	w1, w0
	bgt	.L3
	str	wzr, [sp, 52]
	b	.L4
.L9:
	ldr	w0, [sp, 52]
	str	w0, [sp, 64]
	ldr	w0, [sp, 52]
	add	w0, w0, 1
	str	w0, [sp, 56]
	b	.L5
.L7:
	ldrsw	x0, [sp, 56]
	lsl	x0, x0, 2
	ldr	x1, [sp, 72]
	add	x0, x1, x0
	ldr	w1, [x0]
	ldrsw	x0, [sp, 64]
	lsl	x0, x0, 2
	ldr	x2, [sp, 72]
	add	x0, x2, x0
	ldr	w0, [x0]
	cmp	w1, w0
	bge	.L6
	ldr	w0, [sp, 56]
	str	w0, [sp, 64]
.L6:
	ldr	w0, [sp, 56]
	add	w0, w0, 1
	str	w0, [sp, 56]
.L5:
	ldr	w1, [sp, 56]
	ldr	w0, [sp, 60]
	cmp	w1, w0
	blt	.L7
	ldr	w1, [sp, 64]
	ldr	w0, [sp, 52]
	cmp	w1, w0
	beq	.L8
	ldrsw	x0, [sp, 52]
	lsl	x0, x0, 2
	ldr	x1, [sp, 72]
	add	x0, x1, x0
	ldr	w0, [x0]
	str	w0, [sp, 68]
	ldrsw	x0, [sp, 64]
	lsl	x0, x0, 2
	ldr	x1, [sp, 72]
	add	x1, x1, x0
	ldrsw	x0, [sp, 52]
	lsl	x0, x0, 2
	ldr	x2, [sp, 72]
	add	x0, x2, x0
	ldr	w1, [x1]
	str	w1, [x0]
	ldrsw	x0, [sp, 64]
	lsl	x0, x0, 2
	ldr	x1, [sp, 72]
	add	x0, x1, x0
	ldr	w1, [sp, 68]
	str	w1, [x0]
.L8:
	ldr	w0, [sp, 52]
	add	w0, w0, 1
	str	w0, [sp, 52]
.L4:
	ldr	w0, [sp, 60]
	sub	w0, w0, #1
	ldr	w1, [sp, 52]
	cmp	w1, w0
	blt	.L9
	str	wzr, [sp, 52]
	b	.L10
.L13:
	ldr	w2, [sp, 52]
	mov	w0, 21846
	movk	w0, 0x5555, lsl 16
	smull	x0, w2, w0
	lsr	x1, x0, 32
	asr	w0, w2, 31
	sub	w1, w1, w0
	mov	w0, w1
	lsl	w0, w0, 1
	add	w0, w0, w1
	sub	w1, w2, w0
	cmp	w1, 0
	bne	.L11
	ldr	w0, [sp, 52]
	mov	w1, 21846
	movk	w1, 0x5555, lsl 16
	smull	x1, w0, w1
	lsr	x1, x1, 32
	asr	w0, w0, 31
	sub	w0, w1, w0
	sxtw	x0, w0
	lsl	x0, x0, 2
	ldr	x1, [sp, 72]
	add	x1, x1, x0
	ldrsw	x0, [sp, 52]
	lsl	x0, x0, 2
	ldr	x2, [sp, 24]
	add	x0, x2, x0
	ldr	w1, [x1]
	str	w1, [x0]
	b	.L12
.L11:
	ldrsw	x0, [sp, 52]
	lsl	x0, x0, 2
	ldr	x1, [sp, 40]
	add	x1, x1, x0
	ldrsw	x0, [sp, 52]
	lsl	x0, x0, 2
	ldr	x2, [sp, 24]
	add	x0, x2, x0
	ldr	w1, [x1]
	str	w1, [x0]
.L12:
	ldr	w0, [sp, 52]
	add	w0, w0, 1
	str	w0, [sp, 52]
.L10:
	ldr	w1, [sp, 52]
	ldr	w0, [sp, 36]
	cmp	w1, w0
	blt	.L13
	ldr	x0, [sp, 72]
	bl	free
	nop
	ldp	x29, x30, [sp], 80
	.cfi_restore 30
	.cfi_restore 29
	.cfi_def_cfa_offset 0
	ret
	.cfi_endproc
.LFE6:
	.size	func0, .-func0
	.ident	"GCC: (Ubuntu 13.3.0-6ubuntu2~24.04) 13.3.0"
	.section	.note.GNU-stack,"",@progbits
