	.file	"problem104.c"
	.text
	.section	.rodata
.LC0:
	.string	"-1"
	.text
	.globl	func0
	.type	func0, @function
func0:
.LFB6:
	.cfi_startproc
	endbr64
	pushq	%rbp
	.cfi_def_cfa_offset 16
	.cfi_offset 6, -16
	movq	%rsp, %rbp
	.cfi_def_cfa_register 6
	subq	$32, %rsp
	movl	%edi, -20(%rbp)
	movl	%esi, -24(%rbp)
	movl	-20(%rbp), %eax
	cmpl	-24(%rbp), %eax
	jle	.L2
	leaq	.LC0(%rip), %rax
	jmp	.L3
.L2:
	movl	-24(%rbp), %edx
	movl	-20(%rbp), %eax
	addl	%edx, %eax
	movl	%eax, %edx
	shrl	$31, %edx
	addl	%edx, %eax
	sarl	%eax
	movl	%eax, -16(%rbp)
	movl	$33, %edi
	call	malloc@PLT
	movq	%rax, -8(%rbp)
	movq	-8(%rbp), %rax
	movb	$0, (%rax)
	movl	$32, -12(%rbp)
	movl	-12(%rbp), %eax
	leal	-1(%rax), %edx
	movl	%edx, -12(%rbp)
	movslq	%eax, %rdx
	movq	-8(%rbp), %rax
	addq	%rdx, %rax
	movb	$0, (%rax)
.L4:
	movl	-16(%rbp), %edx
	movl	%edx, %eax
	sarl	$31, %eax
	shrl	$31, %eax
	addl	%eax, %edx
	andl	$1, %edx
	subl	%eax, %edx
	movl	%edx, %eax
	leal	48(%rax), %ecx
	movl	-12(%rbp), %eax
	leal	-1(%rax), %edx
	movl	%edx, -12(%rbp)
	movslq	%eax, %rdx
	movq	-8(%rbp), %rax
	addq	%rdx, %rax
	movl	%ecx, %edx
	movb	%dl, (%rax)
	movl	-16(%rbp), %eax
	movl	%eax, %edx
	shrl	$31, %edx
	addl	%edx, %eax
	sarl	%eax
	movl	%eax, -16(%rbp)
	cmpl	$0, -16(%rbp)
	jg	.L4
	movl	-12(%rbp), %eax
	cltq
	leaq	1(%rax), %rdx
	movq	-8(%rbp), %rax
	addq	%rdx, %rax
.L3:
	leave
	.cfi_def_cfa 7, 8
	ret
	.cfi_endproc
.LFE6:
	.size	func0, .-func0
	.section	.rodata
.LC1:
	.string	"11"
.LC2:
	.string	"problem104.c"
	.align 8
.LC3:
	.string	"strcmp(func0(1, 5), \"11\") == 0"
.LC4:
	.string	"1010"
	.align 8
.LC5:
	.string	"strcmp(func0(7, 13), \"1010\") == 0"
.LC6:
	.string	"1111001010"
	.align 8
.LC7:
	.string	"strcmp(func0(964, 977), \"1111001010\") == 0"
.LC8:
	.string	"1111100100"
	.align 8
.LC9:
	.string	"strcmp(func0(996, 997), \"1111100100\") == 0"
.LC10:
	.string	"1011000001"
	.align 8
.LC11:
	.string	"strcmp(func0(560, 851), \"1011000001\") == 0"
.LC12:
	.string	"101101101"
	.align 8
.LC13:
	.string	"strcmp(func0(185, 546), \"101101101\") == 0"
.LC14:
	.string	"110101101"
	.align 8
.LC15:
	.string	"strcmp(func0(362, 496), \"110101101\") == 0"
.LC16:
	.string	"1001110010"
	.align 8
.LC17:
	.string	"strcmp(func0(350, 902), \"1001110010\") == 0"
.LC18:
	.string	"11010111"
	.align 8
.LC19:
	.string	"strcmp(func0(197, 233), \"11010111\") == 0"
	.align 8
.LC20:
	.string	"strcmp(func0(7, 5), \"-1\") == 0"
	.align 8
.LC21:
	.string	"strcmp(func0(5, 1), \"-1\") == 0"
.LC22:
	.string	"101"
	.align 8
.LC23:
	.string	"strcmp(func0(5, 5), \"101\") == 0"
	.text
	.globl	main
	.type	main, @function
main:
.LFB7:
	.cfi_startproc
	endbr64
	pushq	%rbp
	.cfi_def_cfa_offset 16
	.cfi_offset 6, -16
	movq	%rsp, %rbp
	.cfi_def_cfa_register 6
	movl	$5, %esi
	movl	$1, %edi
	call	func0
	movq	%rax, %rdx
	leaq	.LC1(%rip), %rax
	movq	%rax, %rsi
	movq	%rdx, %rdi
	call	strcmp@PLT
	testl	%eax, %eax
	je	.L6
	leaq	__PRETTY_FUNCTION__.0(%rip), %rax
	movq	%rax, %rcx
	movl	$27, %edx
	leaq	.LC2(%rip), %rax
	movq	%rax, %rsi
	leaq	.LC3(%rip), %rax
	movq	%rax, %rdi
	call	__assert_fail@PLT
.L6:
	movl	$13, %esi
	movl	$7, %edi
	call	func0
	movq	%rax, %rdx
	leaq	.LC4(%rip), %rax
	movq	%rax, %rsi
	movq	%rdx, %rdi
	call	strcmp@PLT
	testl	%eax, %eax
	je	.L7
	leaq	__PRETTY_FUNCTION__.0(%rip), %rax
	movq	%rax, %rcx
	movl	$28, %edx
	leaq	.LC2(%rip), %rax
	movq	%rax, %rsi
	leaq	.LC5(%rip), %rax
	movq	%rax, %rdi
	call	__assert_fail@PLT
.L7:
	movl	$977, %esi
	movl	$964, %edi
	call	func0
	movq	%rax, %rdx
	leaq	.LC6(%rip), %rax
	movq	%rax, %rsi
	movq	%rdx, %rdi
	call	strcmp@PLT
	testl	%eax, %eax
	je	.L8
	leaq	__PRETTY_FUNCTION__.0(%rip), %rax
	movq	%rax, %rcx
	movl	$29, %edx
	leaq	.LC2(%rip), %rax
	movq	%rax, %rsi
	leaq	.LC7(%rip), %rax
	movq	%rax, %rdi
	call	__assert_fail@PLT
.L8:
	movl	$997, %esi
	movl	$996, %edi
	call	func0
	movq	%rax, %rdx
	leaq	.LC8(%rip), %rax
	movq	%rax, %rsi
	movq	%rdx, %rdi
	call	strcmp@PLT
	testl	%eax, %eax
	je	.L9
	leaq	__PRETTY_FUNCTION__.0(%rip), %rax
	movq	%rax, %rcx
	movl	$30, %edx
	leaq	.LC2(%rip), %rax
	movq	%rax, %rsi
	leaq	.LC9(%rip), %rax
	movq	%rax, %rdi
	call	__assert_fail@PLT
.L9:
	movl	$851, %esi
	movl	$560, %edi
	call	func0
	movq	%rax, %rdx
	leaq	.LC10(%rip), %rax
	movq	%rax, %rsi
	movq	%rdx, %rdi
	call	strcmp@PLT
	testl	%eax, %eax
	je	.L10
	leaq	__PRETTY_FUNCTION__.0(%rip), %rax
	movq	%rax, %rcx
	movl	$31, %edx
	leaq	.LC2(%rip), %rax
	movq	%rax, %rsi
	leaq	.LC11(%rip), %rax
	movq	%rax, %rdi
	call	__assert_fail@PLT
.L10:
	movl	$546, %esi
	movl	$185, %edi
	call	func0
	movq	%rax, %rdx
	leaq	.LC12(%rip), %rax
	movq	%rax, %rsi
	movq	%rdx, %rdi
	call	strcmp@PLT
	testl	%eax, %eax
	je	.L11
	leaq	__PRETTY_FUNCTION__.0(%rip), %rax
	movq	%rax, %rcx
	movl	$32, %edx
	leaq	.LC2(%rip), %rax
	movq	%rax, %rsi
	leaq	.LC13(%rip), %rax
	movq	%rax, %rdi
	call	__assert_fail@PLT
.L11:
	movl	$496, %esi
	movl	$362, %edi
	call	func0
	movq	%rax, %rdx
	leaq	.LC14(%rip), %rax
	movq	%rax, %rsi
	movq	%rdx, %rdi
	call	strcmp@PLT
	testl	%eax, %eax
	je	.L12
	leaq	__PRETTY_FUNCTION__.0(%rip), %rax
	movq	%rax, %rcx
	movl	$33, %edx
	leaq	.LC2(%rip), %rax
	movq	%rax, %rsi
	leaq	.LC15(%rip), %rax
	movq	%rax, %rdi
	call	__assert_fail@PLT
.L12:
	movl	$902, %esi
	movl	$350, %edi
	call	func0
	movq	%rax, %rdx
	leaq	.LC16(%rip), %rax
	movq	%rax, %rsi
	movq	%rdx, %rdi
	call	strcmp@PLT
	testl	%eax, %eax
	je	.L13
	leaq	__PRETTY_FUNCTION__.0(%rip), %rax
	movq	%rax, %rcx
	movl	$34, %edx
	leaq	.LC2(%rip), %rax
	movq	%rax, %rsi
	leaq	.LC17(%rip), %rax
	movq	%rax, %rdi
	call	__assert_fail@PLT
.L13:
	movl	$233, %esi
	movl	$197, %edi
	call	func0
	movq	%rax, %rdx
	leaq	.LC18(%rip), %rax
	movq	%rax, %rsi
	movq	%rdx, %rdi
	call	strcmp@PLT
	testl	%eax, %eax
	je	.L14
	leaq	__PRETTY_FUNCTION__.0(%rip), %rax
	movq	%rax, %rcx
	movl	$35, %edx
	leaq	.LC2(%rip), %rax
	movq	%rax, %rsi
	leaq	.LC19(%rip), %rax
	movq	%rax, %rdi
	call	__assert_fail@PLT
.L14:
	movl	$5, %esi
	movl	$7, %edi
	call	func0
	movq	%rax, %rdx
	leaq	.LC0(%rip), %rax
	movq	%rax, %rsi
	movq	%rdx, %rdi
	call	strcmp@PLT
	testl	%eax, %eax
	je	.L15
	leaq	__PRETTY_FUNCTION__.0(%rip), %rax
	movq	%rax, %rcx
	movl	$36, %edx
	leaq	.LC2(%rip), %rax
	movq	%rax, %rsi
	leaq	.LC20(%rip), %rax
	movq	%rax, %rdi
	call	__assert_fail@PLT
.L15:
	movl	$1, %esi
	movl	$5, %edi
	call	func0
	movq	%rax, %rdx
	leaq	.LC0(%rip), %rax
	movq	%rax, %rsi
	movq	%rdx, %rdi
	call	strcmp@PLT
	testl	%eax, %eax
	je	.L16
	leaq	__PRETTY_FUNCTION__.0(%rip), %rax
	movq	%rax, %rcx
	movl	$37, %edx
	leaq	.LC2(%rip), %rax
	movq	%rax, %rsi
	leaq	.LC21(%rip), %rax
	movq	%rax, %rdi
	call	__assert_fail@PLT
.L16:
	movl	$5, %esi
	movl	$5, %edi
	call	func0
	movq	%rax, %rdx
	leaq	.LC22(%rip), %rax
	movq	%rax, %rsi
	movq	%rdx, %rdi
	call	strcmp@PLT
	testl	%eax, %eax
	je	.L17
	leaq	__PRETTY_FUNCTION__.0(%rip), %rax
	movq	%rax, %rcx
	movl	$38, %edx
	leaq	.LC2(%rip), %rax
	movq	%rax, %rsi
	leaq	.LC23(%rip), %rax
	movq	%rax, %rdi
	call	__assert_fail@PLT
.L17:
	movl	$0, %eax
	popq	%rbp
	.cfi_def_cfa 7, 8
	ret
	.cfi_endproc
.LFE7:
	.size	main, .-main
	.section	.rodata
	.type	__PRETTY_FUNCTION__.0, @object
	.size	__PRETTY_FUNCTION__.0, 5
__PRETTY_FUNCTION__.0:
	.string	"main"
	.ident	"GCC: (Ubuntu 13.3.0-6ubuntu2~24.04) 13.3.0"
	.section	.note.GNU-stack,"",@progbits
	.section	.note.gnu.property,"a"
	.align 8
	.long	1f - 0f
	.long	4f - 1f
	.long	5
0:
	.string	"GNU"
1:
	.align 8
	.long	0xc0000002
	.long	3f - 2f
2:
	.long	0x3
3:
	.align 8
4:
