	.file	"problem74.c"
	.text
	.globl	func0
	.type	func0, @function
func0:
.LFB0:
	.cfi_startproc
	endbr64
	pushq	%rbp
	.cfi_def_cfa_offset 16
	.cfi_offset 6, -16
	movq	%rsp, %rbp
	.cfi_def_cfa_register 6
	movq	%rdi, -24(%rbp)
	movl	%esi, -28(%rbp)
	movl	$0, -8(%rbp)
	movl	$0, -4(%rbp)
	jmp	.L2
.L4:
	movl	-4(%rbp), %eax
	cltq
	leaq	0(,%rax,4), %rdx
	movq	-24(%rbp), %rax
	addq	%rdx, %rax
	movl	(%rax), %edx
	movl	-28(%rbp), %eax
	subl	$1, %eax
	subl	-4(%rbp), %eax
	cltq
	leaq	0(,%rax,4), %rcx
	movq	-24(%rbp), %rax
	addq	%rcx, %rax
	movl	(%rax), %eax
	cmpl	%eax, %edx
	je	.L3
	addl	$1, -8(%rbp)
.L3:
	addl	$1, -4(%rbp)
.L2:
	movl	-28(%rbp), %eax
	movl	%eax, %edx
	shrl	$31, %edx
	addl	%edx, %eax
	sarl	%eax
	cmpl	%eax, -4(%rbp)
	jl	.L4
	movl	-8(%rbp), %eax
	popq	%rbp
	.cfi_def_cfa 7, 8
	ret
	.cfi_endproc
.LFE0:
	.size	func0, .-func0
	.section	.rodata
.LC0:
	.string	"problem74.c"
.LC1:
	.string	"func0(test1, 8) == 4"
.LC2:
	.string	"func0(test2, 7) == 1"
.LC3:
	.string	"func0(test3, 3) == 1"
.LC4:
	.string	"func0(test4, 4) == 1"
.LC5:
	.string	"func0(test5, 5) == 0"
.LC6:
	.string	"func0(test6, 4) == 0"
.LC7:
	.string	"func0(test7, 1) == 0"
.LC8:
	.string	"func0(test8, 2) == 1"
	.text
	.globl	main
	.type	main, @function
main:
.LFB1:
	.cfi_startproc
	endbr64
	pushq	%rbp
	.cfi_def_cfa_offset 16
	.cfi_offset 6, -16
	movq	%rsp, %rbp
	.cfi_def_cfa_register 6
	subq	$176, %rsp
	movq	%fs:40, %rax
	movq	%rax, -8(%rbp)
	xorl	%eax, %eax
	movl	$1, -48(%rbp)
	movl	$2, -44(%rbp)
	movl	$3, -40(%rbp)
	movl	$5, -36(%rbp)
	movl	$4, -32(%rbp)
	movl	$7, -28(%rbp)
	movl	$9, -24(%rbp)
	movl	$6, -20(%rbp)
	leaq	-48(%rbp), %rax
	movl	$8, %esi
	movq	%rax, %rdi
	call	func0
	cmpl	$4, %eax
	je	.L7
	leaq	__PRETTY_FUNCTION__.0(%rip), %rax
	movq	%rax, %rcx
	movl	$20, %edx
	leaq	.LC0(%rip), %rax
	movq	%rax, %rsi
	leaq	.LC1(%rip), %rax
	movq	%rax, %rdi
	call	__assert_fail@PLT
.L7:
	movl	$1, -80(%rbp)
	movl	$2, -76(%rbp)
	movl	$3, -72(%rbp)
	movl	$4, -68(%rbp)
	movl	$3, -64(%rbp)
	movl	$2, -60(%rbp)
	movl	$2, -56(%rbp)
	leaq	-80(%rbp), %rax
	movl	$7, %esi
	movq	%rax, %rdi
	call	func0
	cmpl	$1, %eax
	je	.L8
	leaq	__PRETTY_FUNCTION__.0(%rip), %rax
	movq	%rax, %rcx
	movl	$23, %edx
	leaq	.LC0(%rip), %rax
	movq	%rax, %rsi
	leaq	.LC2(%rip), %rax
	movq	%rax, %rdi
	call	__assert_fail@PLT
.L8:
	movl	$1, -156(%rbp)
	movl	$4, -152(%rbp)
	movl	$2, -148(%rbp)
	leaq	-156(%rbp), %rax
	movl	$3, %esi
	movq	%rax, %rdi
	call	func0
	cmpl	$1, %eax
	je	.L9
	leaq	__PRETTY_FUNCTION__.0(%rip), %rax
	movq	%rax, %rcx
	movl	$26, %edx
	leaq	.LC0(%rip), %rax
	movq	%rax, %rsi
	leaq	.LC3(%rip), %rax
	movq	%rax, %rdi
	call	__assert_fail@PLT
.L9:
	movl	$1, -144(%rbp)
	movl	$4, -140(%rbp)
	movl	$4, -136(%rbp)
	movl	$2, -132(%rbp)
	leaq	-144(%rbp), %rax
	movl	$4, %esi
	movq	%rax, %rdi
	call	func0
	cmpl	$1, %eax
	je	.L10
	leaq	__PRETTY_FUNCTION__.0(%rip), %rax
	movq	%rax, %rcx
	movl	$29, %edx
	leaq	.LC0(%rip), %rax
	movq	%rax, %rsi
	leaq	.LC4(%rip), %rax
	movq	%rax, %rdi
	call	__assert_fail@PLT
.L10:
	movl	$1, -112(%rbp)
	movl	$2, -108(%rbp)
	movl	$3, -104(%rbp)
	movl	$2, -100(%rbp)
	movl	$1, -96(%rbp)
	leaq	-112(%rbp), %rax
	movl	$5, %esi
	movq	%rax, %rdi
	call	func0
	testl	%eax, %eax
	je	.L11
	leaq	__PRETTY_FUNCTION__.0(%rip), %rax
	movq	%rax, %rcx
	movl	$32, %edx
	leaq	.LC0(%rip), %rax
	movq	%rax, %rsi
	leaq	.LC5(%rip), %rax
	movq	%rax, %rdi
	call	__assert_fail@PLT
.L11:
	movl	$3, -128(%rbp)
	movl	$1, -124(%rbp)
	movl	$1, -120(%rbp)
	movl	$3, -116(%rbp)
	leaq	-128(%rbp), %rax
	movl	$4, %esi
	movq	%rax, %rdi
	call	func0
	testl	%eax, %eax
	je	.L12
	leaq	__PRETTY_FUNCTION__.0(%rip), %rax
	movq	%rax, %rcx
	movl	$35, %edx
	leaq	.LC0(%rip), %rax
	movq	%rax, %rsi
	leaq	.LC6(%rip), %rax
	movq	%rax, %rdi
	call	__assert_fail@PLT
.L12:
	movl	$1, -168(%rbp)
	leaq	-168(%rbp), %rax
	movl	$1, %esi
	movq	%rax, %rdi
	call	func0
	testl	%eax, %eax
	je	.L13
	leaq	__PRETTY_FUNCTION__.0(%rip), %rax
	movq	%rax, %rcx
	movl	$38, %edx
	leaq	.LC0(%rip), %rax
	movq	%rax, %rsi
	leaq	.LC7(%rip), %rax
	movq	%rax, %rdi
	call	__assert_fail@PLT
.L13:
	movl	$0, -164(%rbp)
	movl	$1, -160(%rbp)
	leaq	-164(%rbp), %rax
	movl	$2, %esi
	movq	%rax, %rdi
	call	func0
	cmpl	$1, %eax
	je	.L14
	leaq	__PRETTY_FUNCTION__.0(%rip), %rax
	movq	%rax, %rcx
	movl	$41, %edx
	leaq	.LC0(%rip), %rax
	movq	%rax, %rsi
	leaq	.LC8(%rip), %rax
	movq	%rax, %rdi
	call	__assert_fail@PLT
.L14:
	movl	$0, %eax
	movq	-8(%rbp), %rdx
	subq	%fs:40, %rdx
	je	.L16
	call	__stack_chk_fail@PLT
.L16:
	leave
	.cfi_def_cfa 7, 8
	ret
	.cfi_endproc
.LFE1:
	.size	main, .-main
	.section	.rodata
	.type	__PRETTY_FUNCTION__.0, @object
	.size	__PRETTY_FUNCTION__.0, 5
__PRETTY_FUNCTION__.0:
	.string	"main"
	.ident	"GCC: (Ubuntu 11.4.0-1ubuntu1~22.04) 11.4.0"
	.section	.note.GNU-stack,"",@progbits
	.section	.note.gnu.property,"a"
	.align 8
	.long	1f - 0f
	.long	4f - 1f
	.long	5
0:
	.string	"GNU"
1:
	.align 8
	.long	0xc0000002
	.long	3f - 2f
2:
	.long	0x3
3:
	.align 8
4:
