	.file	"problem65.c"
	.text
	.section	.rodata
.LC0:
	.string	"aeiouAEIOU"
	.text
	.globl	func0
	.type	func0, @function
func0:
.LFB0:
	.cfi_startproc
	endbr64
	pushq	%rbp
	.cfi_def_cfa_offset 16
	.cfi_offset 6, -16
	movq	%rsp, %rbp
	.cfi_def_cfa_register 6
	subq	$48, %rsp
	movq	%rdi, -40(%rbp)
	leaq	.LC0(%rip), %rax
	movq	%rax, -8(%rbp)
	movl	$0, -20(%rbp)
	movq	-40(%rbp), %rax
	movq	%rax, %rdi
	call	strlen@PLT
	movl	%eax, -12(%rbp)
	movl	$0, -16(%rbp)
	jmp	.L2
.L4:
	movl	-16(%rbp), %eax
	movslq	%eax, %rdx
	movq	-40(%rbp), %rax
	addq	%rdx, %rax
	movzbl	(%rax), %eax
	movsbl	%al, %edx
	movq	-8(%rbp), %rax
	movl	%edx, %esi
	movq	%rax, %rdi
	call	strchr@PLT
	testq	%rax, %rax
	je	.L3
	addl	$1, -20(%rbp)
.L3:
	addl	$1, -16(%rbp)
.L2:
	movl	-16(%rbp), %eax
	cmpl	-12(%rbp), %eax
	jl	.L4
	cmpl	$0, -12(%rbp)
	jle	.L5
	movl	-12(%rbp), %eax
	cltq
	leaq	-1(%rax), %rdx
	movq	-40(%rbp), %rax
	addq	%rdx, %rax
	movzbl	(%rax), %eax
	cmpb	$121, %al
	je	.L6
	movl	-12(%rbp), %eax
	cltq
	leaq	-1(%rax), %rdx
	movq	-40(%rbp), %rax
	addq	%rdx, %rax
	movzbl	(%rax), %eax
	cmpb	$89, %al
	jne	.L5
.L6:
	addl	$1, -20(%rbp)
.L5:
	movl	-20(%rbp), %eax
	leave
	.cfi_def_cfa 7, 8
	ret
	.cfi_endproc
.LFE0:
	.size	func0, .-func0
	.section	.rodata
.LC1:
	.string	"abcde"
.LC2:
	.string	"problem65.c"
.LC3:
	.string	"func0(\"abcde\") == 2"
.LC4:
	.string	"Alone"
.LC5:
	.string	"func0(\"Alone\") == 3"
.LC6:
	.string	"key"
.LC7:
	.string	"func0(\"key\") == 2"
.LC8:
	.string	"bye"
.LC9:
	.string	"func0(\"bye\") == 1"
.LC10:
	.string	"keY"
.LC11:
	.string	"func0(\"keY\") == 2"
.LC12:
	.string	"bYe"
.LC13:
	.string	"func0(\"bYe\") == 1"
.LC14:
	.string	"ACEDY"
.LC15:
	.string	"func0(\"ACEDY\") == 3"
	.text
	.globl	main
	.type	main, @function
main:
.LFB1:
	.cfi_startproc
	endbr64
	pushq	%rbp
	.cfi_def_cfa_offset 16
	.cfi_offset 6, -16
	movq	%rsp, %rbp
	.cfi_def_cfa_register 6
	leaq	.LC1(%rip), %rax
	movq	%rax, %rdi
	call	func0
	cmpl	$2, %eax
	je	.L9
	leaq	__PRETTY_FUNCTION__.0(%rip), %rax
	movq	%rax, %rcx
	movl	$28, %edx
	leaq	.LC2(%rip), %rax
	movq	%rax, %rsi
	leaq	.LC3(%rip), %rax
	movq	%rax, %rdi
	call	__assert_fail@PLT
.L9:
	leaq	.LC4(%rip), %rax
	movq	%rax, %rdi
	call	func0
	cmpl	$3, %eax
	je	.L10
	leaq	__PRETTY_FUNCTION__.0(%rip), %rax
	movq	%rax, %rcx
	movl	$29, %edx
	leaq	.LC2(%rip), %rax
	movq	%rax, %rsi
	leaq	.LC5(%rip), %rax
	movq	%rax, %rdi
	call	__assert_fail@PLT
.L10:
	leaq	.LC6(%rip), %rax
	movq	%rax, %rdi
	call	func0
	cmpl	$2, %eax
	je	.L11
	leaq	__PRETTY_FUNCTION__.0(%rip), %rax
	movq	%rax, %rcx
	movl	$30, %edx
	leaq	.LC2(%rip), %rax
	movq	%rax, %rsi
	leaq	.LC7(%rip), %rax
	movq	%rax, %rdi
	call	__assert_fail@PLT
.L11:
	leaq	.LC8(%rip), %rax
	movq	%rax, %rdi
	call	func0
	cmpl	$1, %eax
	je	.L12
	leaq	__PRETTY_FUNCTION__.0(%rip), %rax
	movq	%rax, %rcx
	movl	$31, %edx
	leaq	.LC2(%rip), %rax
	movq	%rax, %rsi
	leaq	.LC9(%rip), %rax
	movq	%rax, %rdi
	call	__assert_fail@PLT
.L12:
	leaq	.LC10(%rip), %rax
	movq	%rax, %rdi
	call	func0
	cmpl	$2, %eax
	je	.L13
	leaq	__PRETTY_FUNCTION__.0(%rip), %rax
	movq	%rax, %rcx
	movl	$32, %edx
	leaq	.LC2(%rip), %rax
	movq	%rax, %rsi
	leaq	.LC11(%rip), %rax
	movq	%rax, %rdi
	call	__assert_fail@PLT
.L13:
	leaq	.LC12(%rip), %rax
	movq	%rax, %rdi
	call	func0
	cmpl	$1, %eax
	je	.L14
	leaq	__PRETTY_FUNCTION__.0(%rip), %rax
	movq	%rax, %rcx
	movl	$33, %edx
	leaq	.LC2(%rip), %rax
	movq	%rax, %rsi
	leaq	.LC13(%rip), %rax
	movq	%rax, %rdi
	call	__assert_fail@PLT
.L14:
	leaq	.LC14(%rip), %rax
	movq	%rax, %rdi
	call	func0
	cmpl	$3, %eax
	je	.L15
	leaq	__PRETTY_FUNCTION__.0(%rip), %rax
	movq	%rax, %rcx
	movl	$34, %edx
	leaq	.LC2(%rip), %rax
	movq	%rax, %rsi
	leaq	.LC15(%rip), %rax
	movq	%rax, %rdi
	call	__assert_fail@PLT
.L15:
	movl	$0, %eax
	popq	%rbp
	.cfi_def_cfa 7, 8
	ret
	.cfi_endproc
.LFE1:
	.size	main, .-main
	.section	.rodata
	.type	__PRETTY_FUNCTION__.0, @object
	.size	__PRETTY_FUNCTION__.0, 5
__PRETTY_FUNCTION__.0:
	.string	"main"
	.ident	"GCC: (Ubuntu 13.3.0-6ubuntu2~24.04) 13.3.0"
	.section	.note.GNU-stack,"",@progbits
	.section	.note.gnu.property,"a"
	.align 8
	.long	1f - 0f
	.long	4f - 1f
	.long	5
0:
	.string	"GNU"
1:
	.align 8
	.long	0xc0000002
	.long	3f - 2f
2:
	.long	0x3
3:
	.align 8
4:
