	.file	"problem156.c"
	.text
	.globl	func0
	.type	func0, @function
func0:
.LFB6:
	.cfi_startproc
	endbr64
	pushq	%rbp
	.cfi_def_cfa_offset 16
	.cfi_offset 6, -16
	movq	%rsp, %rbp
	.cfi_def_cfa_register 6
	movl	%edi, -20(%rbp)
	movq	%rsi, -32(%rbp)
	movl	$0, -12(%rbp)
	movl	$0, -8(%rbp)
	movl	-20(%rbp), %eax
	movl	%eax, %edx
	negl	%edx
	cmovns	%edx, %eax
	movl	%eax, -20(%rbp)
.L4:
	movl	-20(%rbp), %edx
	movslq	%edx, %rax
	imulq	$1717986919, %rax, %rax
	shrq	$32, %rax
	sarl	$2, %eax
	movl	%edx, %esi
	sarl	$31, %esi
	subl	%esi, %eax
	movl	%eax, %ecx
	movl	%ecx, %eax
	sall	$2, %eax
	addl	%ecx, %eax
	addl	%eax, %eax
	subl	%eax, %edx
	movl	%edx, -4(%rbp)
	movl	-4(%rbp), %eax
	andl	$1, %eax
	testl	%eax, %eax
	jne	.L2
	addl	$1, -12(%rbp)
	jmp	.L3
.L2:
	addl	$1, -8(%rbp)
.L3:
	movl	-20(%rbp), %eax
	movslq	%eax, %rdx
	imulq	$1717986919, %rdx, %rdx
	shrq	$32, %rdx
	sarl	$2, %edx
	sarl	$31, %eax
	movl	%eax, %ecx
	movl	%edx, %eax
	subl	%ecx, %eax
	movl	%eax, -20(%rbp)
	cmpl	$0, -20(%rbp)
	jg	.L4
	movq	-32(%rbp), %rax
	movl	-12(%rbp), %edx
	movl	%edx, (%rax)
	movq	-32(%rbp), %rax
	leaq	4(%rax), %rdx
	movl	-8(%rbp), %eax
	movl	%eax, (%rdx)
	nop
	popq	%rbp
	.cfi_def_cfa 7, 8
	ret
	.cfi_endproc
.LFE6:
	.size	func0, .-func0
	.globl	issame
	.type	issame, @function
issame:
.LFB7:
	.cfi_startproc
	endbr64
	pushq	%rbp
	.cfi_def_cfa_offset 16
	.cfi_offset 6, -16
	movq	%rsp, %rbp
	.cfi_def_cfa_register 6
	subq	$32, %rsp
	movq	%rdi, -8(%rbp)
	movq	%rsi, -16(%rbp)
	movl	%edx, -20(%rbp)
	movl	-20(%rbp), %eax
	cltq
	leaq	0(,%rax,4), %rdx
	movq	-16(%rbp), %rcx
	movq	-8(%rbp), %rax
	movq	%rcx, %rsi
	movq	%rax, %rdi
	call	memcmp@PLT
	testl	%eax, %eax
	sete	%al
	movzbl	%al, %eax
	leave
	.cfi_def_cfa 7, 8
	ret
	.cfi_endproc
.LFE7:
	.size	issame, .-issame
	.section	.rodata
.LC0:
	.string	"problem156.c"
	.align 8
.LC1:
	.string	"issame(result, (int[]){0, 1}, 2)"
	.align 8
.LC2:
	.string	"issame(result, (int[]){1, 1}, 2)"
	.align 8
.LC3:
	.string	"issame(result, (int[]){2, 2}, 2)"
	.align 8
.LC4:
	.string	"issame(result, (int[]){3, 3}, 2)"
	.align 8
.LC5:
	.string	"issame(result, (int[]){1, 0}, 2)"
	.align 8
.LC6:
	.string	"issame(result, (int[]){2, 3}, 2)"
	.text
	.globl	main
	.type	main, @function
main:
.LFB8:
	.cfi_startproc
	endbr64
	pushq	%rbp
	.cfi_def_cfa_offset 16
	.cfi_offset 6, -16
	movq	%rsp, %rbp
	.cfi_def_cfa_register 6
	subq	$32, %rsp
	movq	%fs:40, %rax
	movq	%rax, -8(%rbp)
	xorl	%eax, %eax
	leaq	-24(%rbp), %rax
	movq	%rax, %rsi
	movl	$7, %edi
	call	func0
	movl	$0, -16(%rbp)
	movl	$1, -12(%rbp)
	leaq	-16(%rbp), %rcx
	leaq	-24(%rbp), %rax
	movl	$2, %edx
	movq	%rcx, %rsi
	movq	%rax, %rdi
	call	issame
	testl	%eax, %eax
	jne	.L8
	leaq	__PRETTY_FUNCTION__.0(%rip), %rax
	movq	%rax, %rcx
	movl	$35, %edx
	leaq	.LC0(%rip), %rax
	movq	%rax, %rsi
	leaq	.LC1(%rip), %rax
	movq	%rax, %rdi
	call	__assert_fail@PLT
.L8:
	leaq	-24(%rbp), %rax
	movq	%rax, %rsi
	movl	$-78, %edi
	call	func0
	movl	$1, -16(%rbp)
	movl	$1, -12(%rbp)
	leaq	-16(%rbp), %rcx
	leaq	-24(%rbp), %rax
	movl	$2, %edx
	movq	%rcx, %rsi
	movq	%rax, %rdi
	call	issame
	testl	%eax, %eax
	jne	.L9
	leaq	__PRETTY_FUNCTION__.0(%rip), %rax
	movq	%rax, %rcx
	movl	$38, %edx
	leaq	.LC0(%rip), %rax
	movq	%rax, %rsi
	leaq	.LC2(%rip), %rax
	movq	%rax, %rdi
	call	__assert_fail@PLT
.L9:
	leaq	-24(%rbp), %rax
	movq	%rax, %rsi
	movl	$3452, %edi
	call	func0
	movl	$2, -16(%rbp)
	movl	$2, -12(%rbp)
	leaq	-16(%rbp), %rcx
	leaq	-24(%rbp), %rax
	movl	$2, %edx
	movq	%rcx, %rsi
	movq	%rax, %rdi
	call	issame
	testl	%eax, %eax
	jne	.L10
	leaq	__PRETTY_FUNCTION__.0(%rip), %rax
	movq	%rax, %rcx
	movl	$41, %edx
	leaq	.LC0(%rip), %rax
	movq	%rax, %rsi
	leaq	.LC3(%rip), %rax
	movq	%rax, %rdi
	call	__assert_fail@PLT
.L10:
	leaq	-24(%rbp), %rax
	movq	%rax, %rsi
	movl	$346211, %edi
	call	func0
	movl	$3, -16(%rbp)
	movl	$3, -12(%rbp)
	leaq	-16(%rbp), %rcx
	leaq	-24(%rbp), %rax
	movl	$2, %edx
	movq	%rcx, %rsi
	movq	%rax, %rdi
	call	issame
	testl	%eax, %eax
	jne	.L11
	leaq	__PRETTY_FUNCTION__.0(%rip), %rax
	movq	%rax, %rcx
	movl	$44, %edx
	leaq	.LC0(%rip), %rax
	movq	%rax, %rsi
	leaq	.LC4(%rip), %rax
	movq	%rax, %rdi
	call	__assert_fail@PLT
.L11:
	leaq	-24(%rbp), %rax
	movq	%rax, %rsi
	movl	$-345821, %edi
	call	func0
	movl	$3, -16(%rbp)
	movl	$3, -12(%rbp)
	leaq	-16(%rbp), %rcx
	leaq	-24(%rbp), %rax
	movl	$2, %edx
	movq	%rcx, %rsi
	movq	%rax, %rdi
	call	issame
	testl	%eax, %eax
	jne	.L12
	leaq	__PRETTY_FUNCTION__.0(%rip), %rax
	movq	%rax, %rcx
	movl	$47, %edx
	leaq	.LC0(%rip), %rax
	movq	%rax, %rsi
	leaq	.LC4(%rip), %rax
	movq	%rax, %rdi
	call	__assert_fail@PLT
.L12:
	leaq	-24(%rbp), %rax
	movq	%rax, %rsi
	movl	$-2, %edi
	call	func0
	movl	$1, -16(%rbp)
	movl	$0, -12(%rbp)
	leaq	-16(%rbp), %rcx
	leaq	-24(%rbp), %rax
	movl	$2, %edx
	movq	%rcx, %rsi
	movq	%rax, %rdi
	call	issame
	testl	%eax, %eax
	jne	.L13
	leaq	__PRETTY_FUNCTION__.0(%rip), %rax
	movq	%rax, %rcx
	movl	$50, %edx
	leaq	.LC0(%rip), %rax
	movq	%rax, %rsi
	leaq	.LC5(%rip), %rax
	movq	%rax, %rdi
	call	__assert_fail@PLT
.L13:
	leaq	-24(%rbp), %rax
	movq	%rax, %rsi
	movl	$-45347, %edi
	call	func0
	movl	$2, -16(%rbp)
	movl	$3, -12(%rbp)
	leaq	-16(%rbp), %rcx
	leaq	-24(%rbp), %rax
	movl	$2, %edx
	movq	%rcx, %rsi
	movq	%rax, %rdi
	call	issame
	testl	%eax, %eax
	jne	.L14
	leaq	__PRETTY_FUNCTION__.0(%rip), %rax
	movq	%rax, %rcx
	movl	$53, %edx
	leaq	.LC0(%rip), %rax
	movq	%rax, %rsi
	leaq	.LC6(%rip), %rax
	movq	%rax, %rdi
	call	__assert_fail@PLT
.L14:
	leaq	-24(%rbp), %rax
	movq	%rax, %rsi
	movl	$0, %edi
	call	func0
	movl	$1, -16(%rbp)
	movl	$0, -12(%rbp)
	leaq	-16(%rbp), %rcx
	leaq	-24(%rbp), %rax
	movl	$2, %edx
	movq	%rcx, %rsi
	movq	%rax, %rdi
	call	issame
	testl	%eax, %eax
	jne	.L15
	leaq	__PRETTY_FUNCTION__.0(%rip), %rax
	movq	%rax, %rcx
	movl	$56, %edx
	leaq	.LC0(%rip), %rax
	movq	%rax, %rsi
	leaq	.LC5(%rip), %rax
	movq	%rax, %rdi
	call	__assert_fail@PLT
.L15:
	movl	$0, %eax
	movq	-8(%rbp), %rdx
	subq	%fs:40, %rdx
	je	.L17
	call	__stack_chk_fail@PLT
.L17:
	leave
	.cfi_def_cfa 7, 8
	ret
	.cfi_endproc
.LFE8:
	.size	main, .-main
	.section	.rodata
	.type	__PRETTY_FUNCTION__.0, @object
	.size	__PRETTY_FUNCTION__.0, 5
__PRETTY_FUNCTION__.0:
	.string	"main"
	.ident	"GCC: (Ubuntu 11.4.0-1ubuntu1~22.04) 11.4.0"
	.section	.note.GNU-stack,"",@progbits
	.section	.note.gnu.property,"a"
	.align 8
	.long	1f - 0f
	.long	4f - 1f
	.long	5
0:
	.string	"GNU"
1:
	.align 8
	.long	0xc0000002
	.long	3f - 2f
2:
	.long	0x3
3:
	.align 8
4:
