	.file	"problem85.c"
	.text
	.section	.rodata
.LC0:
	.string	"%d"
	.text
	.globl	func0
	.type	func0, @function
func0:
.LFB6:
	.cfi_startproc
	endbr64
	pushq	%rbp
	.cfi_def_cfa_offset 16
	.cfi_offset 6, -16
	movq	%rsp, %rbp
	.cfi_def_cfa_register 6
	subq	$64, %rsp
	movl	%edi, -52(%rbp)
	movq	%fs:40, %rax
	movq	%rax, -8(%rbp)
	xorl	%eax, %eax
	movl	-52(%rbp), %edx
	leaq	-14(%rbp), %rax
	leaq	.LC0(%rip), %rcx
	movq	%rcx, %rsi
	movq	%rax, %rdi
	movl	$0, %eax
	call	sprintf@PLT
	movl	$0, -40(%rbp)
	movl	$0, -36(%rbp)
	jmp	.L2
.L3:
	movl	-36(%rbp), %eax
	cltq
	movzbl	-14(%rbp,%rax), %eax
	movsbl	%al, %eax
	subl	$48, %eax
	addl	%eax, -40(%rbp)
	addl	$1, -36(%rbp)
.L2:
	movl	-36(%rbp), %eax
	cltq
	movzbl	-14(%rbp,%rax), %eax
	testb	%al, %al
	jne	.L3
	movl	$33, %edi
	call	malloc@PLT
	movq	%rax, -24(%rbp)
	movl	$0, -32(%rbp)
	cmpl	$0, -40(%rbp)
	jne	.L6
	movl	-32(%rbp), %eax
	leal	1(%rax), %edx
	movl	%edx, -32(%rbp)
	movslq	%eax, %rdx
	movq	-24(%rbp), %rax
	addq	%rdx, %rax
	movb	$48, (%rax)
	jmp	.L5
.L7:
	movl	-40(%rbp), %eax
	cltd
	shrl	$31, %edx
	addl	%edx, %eax
	andl	$1, %eax
	subl	%edx, %eax
	leal	48(%rax), %ecx
	movl	-32(%rbp), %eax
	leal	1(%rax), %edx
	movl	%edx, -32(%rbp)
	movslq	%eax, %rdx
	movq	-24(%rbp), %rax
	addq	%rdx, %rax
	movl	%ecx, %edx
	movb	%dl, (%rax)
	movl	-40(%rbp), %eax
	movl	%eax, %edx
	shrl	$31, %edx
	addl	%edx, %eax
	sarl	%eax
	movl	%eax, -40(%rbp)
.L6:
	cmpl	$0, -40(%rbp)
	jg	.L7
.L5:
	movl	-32(%rbp), %eax
	movslq	%eax, %rdx
	movq	-24(%rbp), %rax
	addq	%rdx, %rax
	movb	$0, (%rax)
	movl	$0, -28(%rbp)
	jmp	.L8
.L9:
	movl	-28(%rbp), %eax
	movslq	%eax, %rdx
	movq	-24(%rbp), %rax
	addq	%rdx, %rax
	movzbl	(%rax), %eax
	movb	%al, -41(%rbp)
	movl	-32(%rbp), %eax
	subl	-28(%rbp), %eax
	cltq
	leaq	-1(%rax), %rdx
	movq	-24(%rbp), %rax
	addq	%rdx, %rax
	movl	-28(%rbp), %edx
	movslq	%edx, %rcx
	movq	-24(%rbp), %rdx
	addq	%rcx, %rdx
	movzbl	(%rax), %eax
	movb	%al, (%rdx)
	movl	-32(%rbp), %eax
	subl	-28(%rbp), %eax
	cltq
	leaq	-1(%rax), %rdx
	movq	-24(%rbp), %rax
	addq	%rax, %rdx
	movzbl	-41(%rbp), %eax
	movb	%al, (%rdx)
	addl	$1, -28(%rbp)
.L8:
	movl	-32(%rbp), %eax
	movl	%eax, %edx
	shrl	$31, %edx
	addl	%edx, %eax
	sarl	%eax
	cmpl	%eax, -28(%rbp)
	jl	.L9
	movq	-24(%rbp), %rax
	movq	-8(%rbp), %rdx
	subq	%fs:40, %rdx
	je	.L11
	call	__stack_chk_fail@PLT
.L11:
	leave
	.cfi_def_cfa 7, 8
	ret
	.cfi_endproc
.LFE6:
	.size	func0, .-func0
	.section	.rodata
.LC1:
	.string	"1"
.LC2:
	.string	"problem85.c"
.LC3:
	.string	"strcmp(result, \"1\") == 0"
.LC4:
	.string	"110"
.LC5:
	.string	"strcmp(result, \"110\") == 0"
.LC6:
	.string	"1100"
.LC7:
	.string	"strcmp(result, \"1100\") == 0"
.LC8:
	.string	"1001"
.LC9:
	.string	"strcmp(result, \"1001\") == 0"
.LC10:
	.string	"10010"
.LC11:
	.string	"strcmp(result, \"10010\") == 0"
	.text
	.globl	main
	.type	main, @function
main:
.LFB7:
	.cfi_startproc
	endbr64
	pushq	%rbp
	.cfi_def_cfa_offset 16
	.cfi_offset 6, -16
	movq	%rsp, %rbp
	.cfi_def_cfa_register 6
	subq	$16, %rsp
	movl	$1000, %edi
	call	func0
	movq	%rax, -8(%rbp)
	movq	-8(%rbp), %rax
	leaq	.LC1(%rip), %rdx
	movq	%rdx, %rsi
	movq	%rax, %rdi
	call	strcmp@PLT
	testl	%eax, %eax
	je	.L13
	leaq	__PRETTY_FUNCTION__.0(%rip), %rax
	movq	%rax, %rcx
	movl	$42, %edx
	leaq	.LC2(%rip), %rax
	movq	%rax, %rsi
	leaq	.LC3(%rip), %rax
	movq	%rax, %rdi
	call	__assert_fail@PLT
.L13:
	movq	-8(%rbp), %rax
	movq	%rax, %rdi
	call	free@PLT
	movl	$150, %edi
	call	func0
	movq	%rax, -8(%rbp)
	movq	-8(%rbp), %rax
	leaq	.LC4(%rip), %rdx
	movq	%rdx, %rsi
	movq	%rax, %rdi
	call	strcmp@PLT
	testl	%eax, %eax
	je	.L14
	leaq	__PRETTY_FUNCTION__.0(%rip), %rax
	movq	%rax, %rcx
	movl	$46, %edx
	leaq	.LC2(%rip), %rax
	movq	%rax, %rsi
	leaq	.LC5(%rip), %rax
	movq	%rax, %rdi
	call	__assert_fail@PLT
.L14:
	movq	-8(%rbp), %rax
	movq	%rax, %rdi
	call	free@PLT
	movl	$147, %edi
	call	func0
	movq	%rax, -8(%rbp)
	movq	-8(%rbp), %rax
	leaq	.LC6(%rip), %rdx
	movq	%rdx, %rsi
	movq	%rax, %rdi
	call	strcmp@PLT
	testl	%eax, %eax
	je	.L15
	leaq	__PRETTY_FUNCTION__.0(%rip), %rax
	movq	%rax, %rcx
	movl	$50, %edx
	leaq	.LC2(%rip), %rax
	movq	%rax, %rsi
	leaq	.LC7(%rip), %rax
	movq	%rax, %rdi
	call	__assert_fail@PLT
.L15:
	movq	-8(%rbp), %rax
	movq	%rax, %rdi
	call	free@PLT
	movl	$333, %edi
	call	func0
	movq	%rax, -8(%rbp)
	movq	-8(%rbp), %rax
	leaq	.LC8(%rip), %rdx
	movq	%rdx, %rsi
	movq	%rax, %rdi
	call	strcmp@PLT
	testl	%eax, %eax
	je	.L16
	leaq	__PRETTY_FUNCTION__.0(%rip), %rax
	movq	%rax, %rcx
	movl	$54, %edx
	leaq	.LC2(%rip), %rax
	movq	%rax, %rsi
	leaq	.LC9(%rip), %rax
	movq	%rax, %rdi
	call	__assert_fail@PLT
.L16:
	movq	-8(%rbp), %rax
	movq	%rax, %rdi
	call	free@PLT
	movl	$963, %edi
	call	func0
	movq	%rax, -8(%rbp)
	movq	-8(%rbp), %rax
	leaq	.LC10(%rip), %rdx
	movq	%rdx, %rsi
	movq	%rax, %rdi
	call	strcmp@PLT
	testl	%eax, %eax
	je	.L17
	leaq	__PRETTY_FUNCTION__.0(%rip), %rax
	movq	%rax, %rcx
	movl	$58, %edx
	leaq	.LC2(%rip), %rax
	movq	%rax, %rsi
	leaq	.LC11(%rip), %rax
	movq	%rax, %rdi
	call	__assert_fail@PLT
.L17:
	movq	-8(%rbp), %rax
	movq	%rax, %rdi
	call	free@PLT
	movl	$0, %eax
	leave
	.cfi_def_cfa 7, 8
	ret
	.cfi_endproc
.LFE7:
	.size	main, .-main
	.section	.rodata
	.type	__PRETTY_FUNCTION__.0, @object
	.size	__PRETTY_FUNCTION__.0, 5
__PRETTY_FUNCTION__.0:
	.string	"main"
	.ident	"GCC: (Ubuntu 11.4.0-1ubuntu1~22.04) 11.4.0"
	.section	.note.GNU-stack,"",@progbits
	.section	.note.gnu.property,"a"
	.align 8
	.long	1f - 0f
	.long	4f - 1f
	.long	5
0:
	.string	"GNU"
1:
	.align 8
	.long	0xc0000002
	.long	3f - 2f
2:
	.long	0x3
3:
	.align 8
4:
