	.arch armv8-a
	.file	"problem147.c"
	.text
	.align	2
	.global	func0
	.type	func0, %function
func0:
.LFB6:
	.cfi_startproc
	sub	sp, sp, #48
	.cfi_def_cfa_offset 48
	str	x0, [sp, 8]
	str	w1, [sp, 4]
	str	wzr, [sp, 28]
	str	wzr, [sp, 32]
	b	.L2
.L6:
	ldrsw	x0, [sp, 32]
	lsl	x0, x0, 2
	ldr	x1, [sp, 8]
	add	x0, x1, x0
	ldr	w0, [x0]
	cmp	w0, 10
	ble	.L3
	ldrsw	x0, [sp, 32]
	lsl	x0, x0, 2
	ldr	x1, [sp, 8]
	add	x0, x1, x0
	ldr	w1, [x0]
	mov	w0, 26215
	movk	w0, 0x6666, lsl 16
	smull	x0, w1, w0
	lsr	x0, x0, 32
	asr	w2, w0, 2
	asr	w0, w1, 31
	sub	w2, w2, w0
	mov	w0, w2
	lsl	w0, w0, 2
	add	w0, w0, w2
	lsl	w0, w0, 1
	sub	w0, w1, w0
	str	w0, [sp, 40]
	ldrsw	x0, [sp, 32]
	lsl	x0, x0, 2
	ldr	x1, [sp, 8]
	add	x0, x1, x0
	ldr	w0, [x0]
	str	w0, [sp, 36]
	b	.L4
.L5:
	ldr	w0, [sp, 36]
	mov	w1, 26215
	movk	w1, 0x6666, lsl 16
	smull	x1, w0, w1
	lsr	x1, x1, 32
	asr	w1, w1, 2
	asr	w0, w0, 31
	sub	w0, w1, w0
	str	w0, [sp, 36]
.L4:
	ldr	w0, [sp, 36]
	cmp	w0, 9
	bgt	.L5
	ldr	w0, [sp, 36]
	str	w0, [sp, 44]
	ldr	w0, [sp, 44]
	cmp	w0, 0
	and	w0, w0, 1
	csneg	w0, w0, w0, ge
	cmp	w0, 1
	bne	.L3
	ldr	w0, [sp, 40]
	cmp	w0, 0
	and	w0, w0, 1
	csneg	w0, w0, w0, ge
	cmp	w0, 1
	bne	.L3
	ldr	w0, [sp, 28]
	add	w0, w0, 1
	str	w0, [sp, 28]
.L3:
	ldr	w0, [sp, 32]
	add	w0, w0, 1
	str	w0, [sp, 32]
.L2:
	ldr	w1, [sp, 32]
	ldr	w0, [sp, 4]
	cmp	w1, w0
	blt	.L6
	ldr	w0, [sp, 28]
	add	sp, sp, 48
	.cfi_def_cfa_offset 0
	ret
	.cfi_endproc
.LFE6:
	.size	func0, .-func0
	.section	.rodata
	.align	3
.LC3:
	.string	"problem147.c"
	.align	3
.LC4:
	.string	"func0(nums, sizeof(nums) / sizeof(nums[0])) == 0"
	.align	3
.LC5:
	.string	"func0(nums, sizeof(nums) / sizeof(nums[0])) == 1"
	.align	3
.LC6:
	.string	"func0(nums, sizeof(nums) / sizeof(nums[0])) == 2"
	.align	3
.LC7:
	.string	"func0(nums, sizeof(nums) / sizeof(nums[0])) == 4"
	.align	3
.LC8:
	.string	"func0(nums, sizeof(nums) / sizeof(nums[0])) == 3"
	.text
	.align	2
	.global	main
	.type	main, %function
main:
.LFB7:
	.cfi_startproc
	sub	sp, sp, #48
	.cfi_def_cfa_offset 48
	stp	x29, x30, [sp, 32]
	.cfi_offset 29, -16
	.cfi_offset 30, -8
	add	x29, sp, 32
	adrp	x0, :got:__stack_chk_guard
	ldr	x0, [x0, :got_lo12:__stack_chk_guard]
	ldr	x1, [x0]
	str	x1, [sp, 24]
	mov	x1, 0
	mov	w0, 5
	str	w0, [sp]
	mov	w0, -2
	str	w0, [sp, 4]
	mov	w0, 1
	str	w0, [sp, 8]
	mov	w0, -5
	str	w0, [sp, 12]
	mov	x0, sp
	mov	w1, 4
	bl	func0
	cmp	w0, 0
	beq	.L9
	adrp	x0, __PRETTY_FUNCTION__.0
	add	x3, x0, :lo12:__PRETTY_FUNCTION__.0
	mov	w2, 30
	adrp	x0, .LC3
	add	x1, x0, :lo12:.LC3
	adrp	x0, .LC4
	add	x0, x0, :lo12:.LC4
	bl	__assert_fail
.L9:
	mov	w0, 15
	str	w0, [sp]
	mov	w0, -73
	str	w0, [sp, 4]
	mov	w0, 14
	str	w0, [sp, 8]
	mov	w0, -15
	str	w0, [sp, 12]
	mov	x0, sp
	mov	w1, 4
	bl	func0
	cmp	w0, 1
	beq	.L10
	adrp	x0, __PRETTY_FUNCTION__.0
	add	x3, x0, :lo12:__PRETTY_FUNCTION__.0
	mov	w2, 35
	adrp	x0, .LC3
	add	x1, x0, :lo12:.LC3
	adrp	x0, .LC5
	add	x0, x0, :lo12:.LC5
	bl	__assert_fail
.L10:
	adrp	x0, .LC0
	add	x0, x0, :lo12:.LC0
	mov	x2, sp
	mov	x3, x0
	ldp	x0, x1, [x3]
	stp	x0, x1, [x2]
	ldr	x0, [x3, 16]
	str	x0, [x2, 16]
	mov	x0, sp
	mov	w1, 6
	bl	func0
	cmp	w0, 2
	beq	.L11
	adrp	x0, __PRETTY_FUNCTION__.0
	add	x3, x0, :lo12:__PRETTY_FUNCTION__.0
	mov	w2, 40
	adrp	x0, .LC3
	add	x1, x0, :lo12:.LC3
	adrp	x0, .LC6
	add	x0, x0, :lo12:.LC6
	bl	__assert_fail
.L11:
	adrp	x0, .LC1
	add	x0, x0, :lo12:.LC1
	mov	x2, sp
	mov	x3, x0
	ldp	x0, x1, [x3]
	stp	x0, x1, [x2]
	ldr	x0, [x3, 16]
	str	x0, [x2, 16]
	mov	x0, sp
	mov	w1, 6
	bl	func0
	cmp	w0, 4
	beq	.L12
	adrp	x0, __PRETTY_FUNCTION__.0
	add	x3, x0, :lo12:__PRETTY_FUNCTION__.0
	mov	w2, 45
	adrp	x0, .LC3
	add	x1, x0, :lo12:.LC3
	adrp	x0, .LC7
	add	x0, x0, :lo12:.LC7
	bl	__assert_fail
.L12:
	adrp	x0, .LC2
	add	x0, x0, :lo12:.LC2
	mov	x2, sp
	mov	x3, x0
	ldp	x0, x1, [x3]
	stp	x0, x1, [x2]
	ldr	x0, [x3, 16]
	str	x0, [x2, 16]
	mov	x0, sp
	mov	w1, 6
	bl	func0
	cmp	w0, 3
	beq	.L13
	adrp	x0, __PRETTY_FUNCTION__.0
	add	x3, x0, :lo12:__PRETTY_FUNCTION__.0
	mov	w2, 50
	adrp	x0, .LC3
	add	x1, x0, :lo12:.LC3
	adrp	x0, .LC8
	add	x0, x0, :lo12:.LC8
	bl	__assert_fail
.L13:
	mov	w0, 1
	str	w0, [sp]
	mov	x0, sp
	mov	w1, 1
	bl	func0
	cmp	w0, 0
	beq	.L14
	adrp	x0, __PRETTY_FUNCTION__.0
	add	x3, x0, :lo12:__PRETTY_FUNCTION__.0
	mov	w2, 55
	adrp	x0, .LC3
	add	x1, x0, :lo12:.LC3
	adrp	x0, .LC4
	add	x0, x0, :lo12:.LC4
	bl	__assert_fail
.L14:
	mov	x0, sp
	mov	w1, 0
	bl	func0
	cmp	w0, 0
	beq	.L15
	adrp	x0, __PRETTY_FUNCTION__.0
	add	x3, x0, :lo12:__PRETTY_FUNCTION__.0
	mov	w2, 60
	adrp	x0, .LC3
	add	x1, x0, :lo12:.LC3
	adrp	x0, .LC4
	add	x0, x0, :lo12:.LC4
	bl	__assert_fail
.L15:
	mov	w0, 0
	mov	w1, w0
	adrp	x0, :got:__stack_chk_guard
	ldr	x0, [x0, :got_lo12:__stack_chk_guard]
	ldr	x3, [sp, 24]
	ldr	x2, [x0]
	subs	x3, x3, x2
	mov	x2, 0
	beq	.L17
	bl	__stack_chk_fail
.L17:
	mov	w0, w1
	ldp	x29, x30, [sp, 32]
	add	sp, sp, 48
	.cfi_restore 29
	.cfi_restore 30
	.cfi_def_cfa_offset 0
	ret
	.cfi_endproc
.LFE7:
	.size	main, .-main
	.section	.rodata
	.align	3
.LC0:
	.word	33
	.word	-2
	.word	-3
	.word	45
	.word	21
	.word	109
	.align	3
.LC1:
	.word	43
	.word	-12
	.word	93
	.word	125
	.word	121
	.word	109
	.align	3
.LC2:
	.word	71
	.word	-2
	.word	-33
	.word	75
	.word	21
	.word	19
	.text
	.section	.rodata
	.align	3
	.type	__PRETTY_FUNCTION__.0, %object
	.size	__PRETTY_FUNCTION__.0, 5
__PRETTY_FUNCTION__.0:
	.string	"main"
	.ident	"GCC: (Ubuntu 13.3.0-6ubuntu2~24.04) 13.3.0"
	.section	.note.GNU-stack,"",@progbits
